target datalayout = "e-m:e-p270:32:32-p271:32:32-p272:64:64-i64:64-i128:128-f80:128-n8:16:32:64-S128"
target triple = "x86_64-pc-linux-gnu"

%struct.lxb_html_tokenizer = type { ptr, ptr, ptr, ptr, ptr, ptr, ptr, ptr, ptr, ptr, ptr, ptr, ptr, ptr, ptr, i64, ptr, ptr, ptr, ptr, ptr, i64, i64, ptr, ptr, i64, i64, i32, i32, i8, i32, i32, i8, ptr, i64 }
%struct.lxb_html_token_t = type { ptr, ptr, i64, i64, ptr, ptr, ptr, ptr, ptr, i64, i64, i32 }

; Function Attrs: nounwind uwtable
define internal void @lxb_html_token_clean(ptr noundef %0) #0 {
  %2 = alloca ptr, align 8
  store ptr %0, ptr %2, align 8
  %3 = load ptr, ptr %2, align 8
  call void @llvm.memset.p0.i64(ptr align 8 %3, i8 0, i64 96, i1 false)
  ret void
}

; Function Attrs: nounwind uwtable
define internal ptr @lxb_html_tokenizer_state_doctype_after_system_keyword(ptr noundef %0, ptr noundef %1, ptr noundef %2) #0 {
  %4 = alloca ptr, align 8
  %5 = alloca ptr, align 8
  %6 = alloca ptr, align 8
  %7 = alloca ptr, align 8
  store ptr %0, ptr %5, align 8
  store ptr %1, ptr %6, align 8
  store ptr %2, ptr %7, align 8
  %8 = load ptr, ptr %6, align 8
  %9 = load i8, ptr %8, align 1
  %10 = zext i8 %9 to i32
  switch i32 %10, label %175 [
    i32 9, label %11
    i32 10, label %11
    i32 12, label %11
    i32 13, label %11
    i32 32, label %11
    i32 34, label %16
    i32 39, label %26
    i32 62, label %36
    i32 0, label %103
  ]

11:                                               ; preds = %3, %3, %3, %3, %3
  %12 = load ptr, ptr %5, align 8
  %13 = getelementptr inbounds %struct.lxb_html_tokenizer, ptr %12, i32 0, i32 0
  store ptr @lxb_html_tokenizer_state_doctype_before_system_identifier, ptr %13, align 8
  %14 = load ptr, ptr %6, align 8
  %15 = getelementptr inbounds i8, ptr %14, i64 1
  store ptr %15, ptr %4, align 8
  br label %190

16:                                               ; preds = %3
  %17 = load ptr, ptr %5, align 8
  %18 = getelementptr inbounds %struct.lxb_html_tokenizer, ptr %17, i32 0, i32 11
  %19 = load ptr, ptr %18, align 8
  %20 = load ptr, ptr %6, align 8
  %21 = call ptr @lxb_html_tokenizer_error_add(ptr noundef %19, ptr noundef %20, i32 noundef 30)
  %22 = load ptr, ptr %5, align 8
  %23 = getelementptr inbounds %struct.lxb_html_tokenizer, ptr %22, i32 0, i32 0
  store ptr @lxb_html_tokenizer_state_doctype_system_identifier_double_quoted, ptr %23, align 8
  %24 = load ptr, ptr %6, align 8
  %25 = getelementptr inbounds i8, ptr %24, i64 1
  store ptr %25, ptr %4, align 8
  br label %190

26:                                               ; preds = %3
  %27 = load ptr, ptr %5, align 8
  %28 = getelementptr inbounds %struct.lxb_html_tokenizer, ptr %27, i32 0, i32 11
  %29 = load ptr, ptr %28, align 8
  %30 = load ptr, ptr %6, align 8
  %31 = call ptr @lxb_html_tokenizer_error_add(ptr noundef %29, ptr noundef %30, i32 noundef 30)
  %32 = load ptr, ptr %5, align 8
  %33 = getelementptr inbounds %struct.lxb_html_tokenizer, ptr %32, i32 0, i32 0
  store ptr @lxb_html_tokenizer_state_doctype_system_identifier_single_quoted, ptr %33, align 8
  %34 = load ptr, ptr %6, align 8
  %35 = getelementptr inbounds i8, ptr %34, i64 1
  store ptr %35, ptr %4, align 8
  br label %190

36:                                               ; preds = %3
  %37 = load ptr, ptr %5, align 8
  %38 = getelementptr inbounds %struct.lxb_html_tokenizer, ptr %37, i32 0, i32 8
  %39 = load ptr, ptr %38, align 8
  %40 = getelementptr inbounds %struct.lxb_html_token_t, ptr %39, i32 0, i32 11
  %41 = load i32, ptr %40, align 8
  %42 = or i32 %41, 4
  store i32 %42, ptr %40, align 8
  %43 = load ptr, ptr %5, align 8
  %44 = getelementptr inbounds %struct.lxb_html_tokenizer, ptr %43, i32 0, i32 0
  store ptr @lxb_html_tokenizer_state_data_before, ptr %44, align 8
  %45 = load ptr, ptr %5, align 8
  %46 = getelementptr inbounds %struct.lxb_html_tokenizer, ptr %45, i32 0, i32 11
  %47 = load ptr, ptr %46, align 8
  %48 = load ptr, ptr %6, align 8
  %49 = call ptr @lxb_html_tokenizer_error_add(ptr noundef %47, ptr noundef %48, i32 noundef 24)
  br label %50

50:                                               ; preds = %36
  %51 = load ptr, ptr %5, align 8
  %52 = getelementptr inbounds %struct.lxb_html_tokenizer, ptr %51, i32 0, i32 8
  %53 = load ptr, ptr %52, align 8
  %54 = getelementptr inbounds %struct.lxb_html_token_t, ptr %53, i32 0, i32 0
  %55 = load ptr, ptr %54, align 8
  %56 = load ptr, ptr %5, align 8
  %57 = getelementptr inbounds %struct.lxb_html_tokenizer, ptr %56, i32 0, i32 8
  %58 = load ptr, ptr %57, align 8
  %59 = getelementptr inbounds %struct.lxb_html_token_t, ptr %58, i32 0, i32 1
  %60 = load ptr, ptr %59, align 8
  %61 = icmp ne ptr %55, %60
  br i1 %61, label %62, label %91

62:                                               ; preds = %50
  %63 = load ptr, ptr %5, align 8
  %64 = getelementptr inbounds %struct.lxb_html_tokenizer, ptr %63, i32 0, i32 2
  %65 = load ptr, ptr %64, align 8
  %66 = load ptr, ptr %5, align 8
  %67 = load ptr, ptr %5, align 8
  %68 = getelementptr inbounds %struct.lxb_html_tokenizer, ptr %67, i32 0, i32 8
  %69 = load ptr, ptr %68, align 8
  %70 = load ptr, ptr %5, align 8
  %71 = getelementptr inbounds %struct.lxb_html_tokenizer, ptr %70, i32 0, i32 3
  %72 = load ptr, ptr %71, align 8
  %73 = call ptr %65(ptr noundef %66, ptr noundef %69, ptr noundef %72)
  %74 = load ptr, ptr %5, align 8
  %75 = getelementptr inbounds %struct.lxb_html_tokenizer, ptr %74, i32 0, i32 8
  store ptr %73, ptr %75, align 8
  %76 = load ptr, ptr %5, align 8
  %77 = getelementptr inbounds %struct.lxb_html_tokenizer, ptr %76, i32 0, i32 8
  %78 = load ptr, ptr %77, align 8
  %79 = icmp eq ptr %78, null
  br i1 %79, label %80, label %90

80:                                               ; preds = %62
  %81 = load ptr, ptr %5, align 8
  %82 = getelementptr inbounds %struct.lxb_html_tokenizer, ptr %81, i32 0, i32 31
  %83 = load i32, ptr %82, align 8
  %84 = icmp eq i32 %83, 0
  br i1 %84, label %85, label %88

85:                                               ; preds = %80
  %86 = load ptr, ptr %5, align 8
  %87 = getelementptr inbounds %struct.lxb_html_tokenizer, ptr %86, i32 0, i32 31
  store i32 1, ptr %87, align 8
  br label %88

88:                                               ; preds = %85, %80
  %89 = load ptr, ptr %7, align 8
  store ptr %89, ptr %4, align 8
  br label %190

90:                                               ; preds = %62
  br label %91

91:                                               ; preds = %90, %50
  %92 = load ptr, ptr %5, align 8
  %93 = getelementptr inbounds %struct.lxb_html_tokenizer, ptr %92, i32 0, i32 8
  %94 = load ptr, ptr %93, align 8
  call void @lxb_html_token_clean(ptr noundef %94)
  %95 = load ptr, ptr %5, align 8
  %96 = getelementptr inbounds %struct.lxb_html_tokenizer, ptr %95, i32 0, i32 16
  %97 = load ptr, ptr %96, align 8
  %98 = load ptr, ptr %5, align 8
  %99 = getelementptr inbounds %struct.lxb_html_tokenizer, ptr %98, i32 0, i32 17
  store ptr %97, ptr %99, align 8
  br label %100

100:                                              ; preds = %91
  %101 = load ptr, ptr %6, align 8
  %102 = getelementptr inbounds i8, ptr %101, i64 1
  store ptr %102, ptr %4, align 8
  br label %190

103:                                              ; preds = %3
  %104 = load ptr, ptr %5, align 8
  %105 = getelementptr inbounds %struct.lxb_html_tokenizer, ptr %104, i32 0, i32 32
  %106 = load i8, ptr %105, align 4
  %107 = trunc i8 %106 to i1
  br i1 %107, label %108, label %174

108:                                              ; preds = %103
  %109 = load ptr, ptr %5, align 8
  %110 = getelementptr inbounds %struct.lxb_html_tokenizer, ptr %109, i32 0, i32 11
  %111 = load ptr, ptr %110, align 8
  %112 = load ptr, ptr %5, align 8
  %113 = getelementptr inbounds %struct.lxb_html_tokenizer, ptr %112, i32 0, i32 20
  %114 = load ptr, ptr %113, align 8
  %115 = call ptr @lxb_html_tokenizer_error_add(ptr noundef %111, ptr noundef %114, i32 noundef 14)
  %116 = load ptr, ptr %5, align 8
  %117 = getelementptr inbounds %struct.lxb_html_tokenizer, ptr %116, i32 0, i32 8
  %118 = load ptr, ptr %117, align 8
  %119 = getelementptr inbounds %struct.lxb_html_token_t, ptr %118, i32 0, i32 11
  %120 = load i32, ptr %119, align 8
  %121 = or i32 %120, 4
  store i32 %121, ptr %119, align 8
  br label %122

122:                                              ; preds = %108
  %123 = load ptr, ptr %5, align 8
  %124 = getelementptr inbounds %struct.lxb_html_tokenizer, ptr %123, i32 0, i32 8
  %125 = load ptr, ptr %124, align 8
  %126 = getelementptr inbounds %struct.lxb_html_token_t, ptr %125, i32 0, i32 0
  %127 = load ptr, ptr %126, align 8
  %128 = load ptr, ptr %5, align 8
  %129 = getelementptr inbounds %struct.lxb_html_tokenizer, ptr %128, i32 0, i32 8
  %130 = load ptr, ptr %129, align 8
  %131 = getelementptr inbounds %struct.lxb_html_token_t, ptr %130, i32 0, i32 1
  %132 = load ptr, ptr %131, align 8
  %133 = icmp ne ptr %127, %132
  br i1 %133, label %134, label %163

134:                                              ; preds = %122
  %135 = load ptr, ptr %5, align 8
  %136 = getelementptr inbounds %struct.lxb_html_tokenizer, ptr %135, i32 0, i32 2
  %137 = load ptr, ptr %136, align 8
  %138 = load ptr, ptr %5, align 8
  %139 = load ptr, ptr %5, align 8
  %140 = getelementptr inbounds %struct.lxb_html_tokenizer, ptr %139, i32 0, i32 8
  %141 = load ptr, ptr %140, align 8
  %142 = load ptr, ptr %5, align 8
  %143 = getelementptr inbounds %struct.lxb_html_tokenizer, ptr %142, i32 0, i32 3
  %144 = load ptr, ptr %143, align 8
  %145 = call ptr %137(ptr noundef %138, ptr noundef %141, ptr noundef %144)
  %146 = load ptr, ptr %5, align 8
  %147 = getelementptr inbounds %struct.lxb_html_tokenizer, ptr %146, i32 0, i32 8
  store ptr %145, ptr %147, align 8
  %148 = load ptr, ptr %5, align 8
  %149 = getelementptr inbounds %struct.lxb_html_tokenizer, ptr %148, i32 0, i32 8
  %150 = load ptr, ptr %149, align 8
  %151 = icmp eq ptr %150, null
  br i1 %151, label %152, label %162

152:                                              ; preds = %134
  %153 = load ptr, ptr %5, align 8
  %154 = getelementptr inbounds %struct.lxb_html_tokenizer, ptr %153, i32 0, i32 31
  %155 = load i32, ptr %154, align 8
  %156 = icmp eq i32 %155, 0
  br i1 %156, label %157, label %160

157:                                              ; preds = %152
  %158 = load ptr, ptr %5, align 8
  %159 = getelementptr inbounds %struct.lxb_html_tokenizer, ptr %158, i32 0, i32 31
  store i32 1, ptr %159, align 8
  br label %160

160:                                              ; preds = %157, %152
  %161 = load ptr, ptr %7, align 8
  store ptr %161, ptr %4, align 8
  br label %190

162:                                              ; preds = %134
  br label %163

163:                                              ; preds = %162, %122
  %164 = load ptr, ptr %5, align 8
  %165 = getelementptr inbounds %struct.lxb_html_tokenizer, ptr %164, i32 0, i32 8
  %166 = load ptr, ptr %165, align 8
  call void @lxb_html_token_clean(ptr noundef %166)
  %167 = load ptr, ptr %5, align 8
  %168 = getelementptr inbounds %struct.lxb_html_tokenizer, ptr %167, i32 0, i32 16
  %169 = load ptr, ptr %168, align 8
  %170 = load ptr, ptr %5, align 8
  %171 = getelementptr inbounds %struct.lxb_html_tokenizer, ptr %170, i32 0, i32 17
  store ptr %169, ptr %171, align 8
  br label %172

172:                                              ; preds = %163
  %173 = load ptr, ptr %7, align 8
  store ptr %173, ptr %4, align 8
  br label %190

174:                                              ; preds = %103
  br label %175

175:                                              ; preds = %174, %3
  %176 = load ptr, ptr %5, align 8
  %177 = getelementptr inbounds %struct.lxb_html_tokenizer, ptr %176, i32 0, i32 8
  %178 = load ptr, ptr %177, align 8
  %179 = getelementptr inbounds %struct.lxb_html_token_t, ptr %178, i32 0, i32 11
  %180 = load i32, ptr %179, align 8
  %181 = or i32 %180, 4
  store i32 %181, ptr %179, align 8
  %182 = load ptr, ptr %5, align 8
  %183 = getelementptr inbounds %struct.lxb_html_tokenizer, ptr %182, i32 0, i32 0
  store ptr @lxb_html_tokenizer_state_doctype_bogus, ptr %183, align 8
  %184 = load ptr, ptr %5, align 8
  %185 = getelementptr inbounds %struct.lxb_html_tokenizer, ptr %184, i32 0, i32 11
  %186 = load ptr, ptr %185, align 8
  %187 = load ptr, ptr %6, align 8
  %188 = call ptr @lxb_html_tokenizer_error_add(ptr noundef %186, ptr noundef %187, i32 noundef 27)
  %189 = load ptr, ptr %6, align 8
  store ptr %189, ptr %4, align 8
  br label %190

190:                                              ; preds = %175, %172, %160, %100, %88, %26, %16, %11
  %191 = load ptr, ptr %4, align 8
  ret ptr %191
}