; Function Attrs: nounwind uwtable
define internal ptr @lxb_html_tokenizer_state_doctype_after_system_keyword(ptr noundef %0, ptr noundef %1, ptr noundef readnone %2) #0 {
  %4 = load i8, ptr %1, align 1
  switch i8 %4, label %84 [
    i8 9, label %5
    i8 10, label %5
    i8 12, label %5
    i8 13, label %5
    i8 32, label %5
    i8 34, label %7
    i8 39, label %12
    i8 62, label %17
    i8 0, label %48
  ]

5:                                                ; preds = %3, %3, %3, %3, %3
  store ptr @lxb_html_tokenizer_state_doctype_before_system_identifier, ptr %0, align 8
  %6 = getelementptr inbounds i8, ptr %1, i64 1
  br label %93

7:                                                ; preds = %3
  %8 = getelementptr inbounds i8, ptr %0, i64 88
  %9 = load ptr, ptr %8, align 8
  %10 = tail call ptr @lxb_html_tokenizer_error_add(ptr noundef %9, ptr noundef nonnull %1, i32 noundef 30) #4
  store ptr @lxb_html_tokenizer_state_doctype_system_identifier_double_quoted, ptr %0, align 8
  %11 = getelementptr inbounds i8, ptr %1, i64 1
  br label %93

12:                                               ; preds = %3
  %13 = getelementptr inbounds i8, ptr %0, i64 88
  %14 = load ptr, ptr %13, align 8
  %15 = tail call ptr @lxb_html_tokenizer_error_add(ptr noundef %14, ptr noundef nonnull %1, i32 noundef 30) #4
  store ptr @lxb_html_tokenizer_state_doctype_system_identifier_single_quoted, ptr %0, align 8
  %16 = getelementptr inbounds i8, ptr %1, i64 1
  br label %93

17:                                               ; preds = %3
  %18 = getelementptr inbounds i8, ptr %0, i64 64
  %19 = load ptr, ptr %18, align 8
  %20 = getelementptr inbounds i8, ptr %19, i64 88
  %21 = load i32, ptr %20, align 8
  %22 = or i32 %21, 4
  store i32 %22, ptr %20, align 8
  store ptr @lxb_html_tokenizer_state_data_before, ptr %0, align 8
  %23 = getelementptr inbounds i8, ptr %0, i64 88
  %24 = load ptr, ptr %23, align 8
  %25 = tail call ptr @lxb_html_tokenizer_error_add(ptr noundef %24, ptr noundef nonnull %1, i32 noundef 24) #4
  %26 = load ptr, ptr %18, align 8
  %27 = load ptr, ptr %26, align 8
  %28 = getelementptr inbounds i8, ptr %26, i64 8
  %29 = load ptr, ptr %28, align 8
  %.not56 = icmp eq ptr %27, %29
  br i1 %.not56, label %42, label %30

30:                                               ; preds = %17
  %31 = getelementptr inbounds i8, ptr %0, i64 16
  %32 = load ptr, ptr %31, align 8
  %33 = getelementptr inbounds i8, ptr %0, i64 24
  %34 = load ptr, ptr %33, align 8
  %35 = tail call ptr %32(ptr noundef nonnull %0, ptr noundef nonnull %26, ptr noundef %34) #4
  store ptr %35, ptr %18, align 8
  %36 = icmp eq ptr %35, null
  br i1 %36, label %37, label %42

37:                                               ; preds = %30
  %38 = getelementptr inbounds i8, ptr %0, i64 232
  %39 = load i32, ptr %38, align 8
  %40 = icmp eq i32 %39, 0
  br i1 %40, label %41, label %93

41:                                               ; preds = %37
  store i32 1, ptr %38, align 8
  br label %93

42:                                               ; preds = %30, %17
  %43 = phi ptr [ %35, %30 ], [ %26, %17 ]
  tail call void @llvm.memset.p0.i64(ptr noundef nonnull align 8 dereferenceable(96) %43, i8 0, i64 96, i1 false)
  %44 = getelementptr inbounds i8, ptr %0, i64 128
  %45 = load ptr, ptr %44, align 8
  %46 = getelementptr inbounds i8, ptr %0, i64 136
  store ptr %45, ptr %46, align 8
  %47 = getelementptr inbounds i8, ptr %1, i64 1
  br label %93

48:                                               ; preds = %3
  %49 = getelementptr inbounds i8, ptr %0, i64 236
  %50 = load i8, ptr %49, align 4
  %51 = and i8 %50, 1
  %.not = icmp eq i8 %51, 0
  br i1 %.not, label %84, label %52

52:                                               ; preds = %48
  %53 = getelementptr inbounds i8, ptr %0, i64 88
  %54 = load ptr, ptr %53, align 8
  %55 = getelementptr inbounds i8, ptr %0, i64 160
  %56 = load ptr, ptr %55, align 8
  %57 = tail call ptr @lxb_html_tokenizer_error_add(ptr noundef %54, ptr noundef %56, i32 noundef 14) #4
  %58 = getelementptr inbounds i8, ptr %0, i64 64
  %59 = load ptr, ptr %58, align 8
  %60 = getelementptr inbounds i8, ptr %59, i64 88
  %61 = load i32, ptr %60, align 8
  %62 = or i32 %61, 4
  store i32 %62, ptr %60, align 8
  %63 = load ptr, ptr %58, align 8
  %64 = load ptr, ptr %63, align 8
  %65 = getelementptr inbounds i8, ptr %63, i64 8
  %66 = load ptr, ptr %65, align 8
  %.not55 = icmp eq ptr %64, %66
  br i1 %.not55, label %79, label %67

67:                                               ; preds = %52
  %68 = getelementptr inbounds i8, ptr %0, i64 16
  %69 = load ptr, ptr %68, align 8
  %70 = getelementptr inbounds i8, ptr %0, i64 24
  %71 = load ptr, ptr %70, align 8
  %72 = tail call ptr %69(ptr noundef nonnull %0, ptr noundef nonnull %63, ptr noundef %71) #4
  store ptr %72, ptr %58, align 8
  %73 = icmp eq ptr %72, null
  br i1 %73, label %74, label %79

74:                                               ; preds = %67
  %75 = getelementptr inbounds i8, ptr %0, i64 232
  %76 = load i32, ptr %75, align 8
  %77 = icmp eq i32 %76, 0
  br i1 %77, label %78, label %93

78:                                               ; preds = %74
  store i32 1, ptr %75, align 8
  br label %93

79:                                               ; preds = %67, %52
  %80 = phi ptr [ %72, %67 ], [ %63, %52 ]
  tail call void @llvm.memset.p0.i64(ptr noundef nonnull align 8 dereferenceable(96) %80, i8 0, i64 96, i1 false)
  %81 = getelementptr inbounds i8, ptr %0, i64 128
  %82 = load ptr, ptr %81, align 8
  %83 = getelementptr inbounds i8, ptr %0, i64 136
  store ptr %82, ptr %83, align 8
  br label %93

84:                                               ; preds = %48, %3
  %85 = getelementptr inbounds i8, ptr %0, i64 64
  %86 = load ptr, ptr %85, align 8
  %87 = getelementptr inbounds i8, ptr %86, i64 88
  %88 = load i32, ptr %87, align 8
  %89 = or i32 %88, 4
  store i32 %89, ptr %87, align 8
  store ptr @lxb_html_tokenizer_state_doctype_bogus, ptr %0, align 8
  %90 = getelementptr inbounds i8, ptr %0, i64 88
  %91 = load ptr, ptr %90, align 8
  %92 = tail call ptr @lxb_html_tokenizer_error_add(ptr noundef %91, ptr noundef nonnull %1, i32 noundef 27) #4
  br label %93

93:                                               ; preds = %74, %78, %37, %41, %84, %79, %42, %12, %7, %5
  %.0 = phi ptr [ %1, %84 ], [ %2, %79 ], [ %47, %42 ], [ %16, %12 ], [ %11, %7 ], [ %6, %5 ], [ %2, %41 ], [ %2, %37 ], [ %2, %78 ], [ %2, %74 ]
  ret ptr %.0
}